; Function Attrs: mustprogress uwtable
define dso_local noundef zeroext i1 @_ZN5cmsys11SystemTools10FileExistsERKNSt7__cxx1112basic_stringIcSt11char_traitsIcESaIcEEEb(ptr noundef nonnull readonly align 8 captures(none) dereferenceable(32) %0, i1 noundef zeroext %1) local_unnamed_addr #6 align 2 {
  %3 = getelementptr inbounds nuw i8, ptr %0, i64 8
  %4 = load i64, ptr %3, align 8, !tbaa !18
  %5 = icmp eq i64 %4, 0
  br i1 %5, label %_ZN5cmsys11SystemTools10FileExistsERKNSt7__cxx1112basic_stringIcSt11char_traitsIcESaIcEEE.exit.thread, label %_ZN5cmsys11SystemTools10FileExistsERKNSt7__cxx1112basic_stringIcSt11char_traitsIcESaIcEEE.exit

_ZN5cmsys11SystemTools10FileExistsERKNSt7__cxx1112basic_stringIcSt11char_traitsIcESaIcEEE.exit: ; preds = %2
  %6 = load ptr, ptr %0, align 8, !tbaa !21
  %7 = tail call i32 @access(ptr noundef %6, i32 noundef 4) #39
  %8 = icmp eq i32 %7, 0
  %brmerge.not = and i1 %1, %8
  br i1 %brmerge.not, label %9, label %_ZN5cmsys11SystemTools10FileExistsERKNSt7__cxx1112basic_stringIcSt11char_traitsIcESaIcEEE.exit.thread

9:                                                ; preds = %_ZN5cmsys11SystemTools10FileExistsERKNSt7__cxx1112basic_stringIcSt11char_traitsIcESaIcEEE.exit
  %10 = tail call noundef zeroext i1 @_ZN5cmsys11SystemTools15FileIsDirectoryERKNSt7__cxx1112basic_stringIcSt11char_traitsIcESaIcEEE(ptr noundef nonnull align 8 dereferenceable(32) %0)
  %11 = xor i1 %10, true
  br label %_ZN5cmsys11SystemTools10FileExistsERKNSt7__cxx1112basic_stringIcSt11char_traitsIcESaIcEEE.exit.thread

_ZN5cmsys11SystemTools10FileExistsERKNSt7__cxx1112basic_stringIcSt11char_traitsIcESaIcEEE.exit.thread: ; preds = %2, %_ZN5cmsys11SystemTools10FileExistsERKNSt7__cxx1112basic_stringIcSt11char_traitsIcESaIcEEE.exit, %9
  %.0 = phi i1 [ %11, %9 ], [ %8, %_ZN5cmsys11SystemTools10FileExistsERKNSt7__cxx1112basic_stringIcSt11char_traitsIcESaIcEEE.exit ], [ false, %2 ]
  ret i1 %.0
}